; Function Attrs: nounwind uwtable
define zeroext i8 @l_Lean_MessageData_isUnusedVariableWarning___lambda__1(ptr noundef %0) local_unnamed_addr #1 {
  %2 = load ptr, ptr @l_Lean_Linter_linter_unusedVariables, align 8, !tbaa !4
  %3 = getelementptr inbounds nuw i8, ptr %2, i64 8
  %4 = load ptr, ptr %3, align 8, !tbaa !4
  %5 = ptrtoint ptr %4 to i64
  %6 = and i64 %5, 1
  %.not = icmp eq i64 %6, 0
  br i1 %.not, label %7, label %lean_inc.exit

7:                                                ; preds = %1
  %.val.i = load i32, ptr %4, align 4, !tbaa !8
  %8 = icmp sgt i32 %.val.i, 0
  br i1 %8, label %9, label %11, !prof !11

9:                                                ; preds = %7
  %10 = add nuw i32 %.val.i, 1
  store i32 %10, ptr %4, align 4, !tbaa !8
  br label %14

11:                                               ; preds = %7
  %.not.i5 = icmp eq i32 %.val.i, 0
  br i1 %.not.i5, label %14, label %12

12:                                               ; preds = %11
  tail call void @lean_inc_ref_cold(ptr noundef nonnull %4) #7
  br label %14

lean_inc.exit:                                    ; preds = %1
  %13 = tail call zeroext i8 @lean_name_eq(ptr noundef %0, ptr noundef %4) #7
  br label %lean_dec.exit

14:                                               ; preds = %12, %11, %9
  %15 = tail call zeroext i8 @lean_name_eq(ptr noundef %0, ptr noundef nonnull %4) #7
  %16 = load i32, ptr %4, align 4, !tbaa !8
  %17 = icmp sgt i32 %16, 1
  br i1 %17, label %18, label %20, !prof !11

18:                                               ; preds = %14
  %19 = add nsw i32 %16, -1
  store i32 %19, ptr %4, align 4, !tbaa !8
  br label %lean_dec.exit

20:                                               ; preds = %14
  %.not.i = icmp eq i32 %16, 0
  br i1 %.not.i, label %lean_dec.exit, label %21

21:                                               ; preds = %20
  tail call void @lean_dec_ref_cold(ptr noundef nonnull %4) #7
  br label %lean_dec.exit

lean_dec.exit:                                    ; preds = %21, %20, %18, %lean_inc.exit
  %22 = phi i8 [ %13, %lean_inc.exit ], [ %15, %18 ], [ %15, %20 ], [ %15, %21 ]
  ret i8 %22
}